; Function Attrs: nounwind uwtable
define internal void @call_callback(ptr readnone captures(none) %0, ptr noundef %1) #0 {
  %3 = getelementptr inbounds nuw i8, ptr %1, i64 16
  %4 = load i8, ptr %3, align 8, !range !8, !noundef !9
  %5 = trunc nuw i8 %4 to i1
  br i1 %5, label %12, label %6

6:                                                ; preds = %2
  %7 = getelementptr inbounds nuw i8, ptr %1, i64 24
  %8 = load ptr, ptr %7, align 8
  %.not = icmp eq ptr %8, null
  br i1 %.not, label %12, label %9

9:                                                ; preds = %6
  %10 = getelementptr inbounds nuw i8, ptr %1, i64 32
  %11 = load ptr, ptr %10, align 8
  tail call void %8(ptr noundef %11, ptr noundef nonnull %1) #10
  br label %12

12:                                               ; preds = %6, %9, %2
  ret void
}